target datalayout = "e-m:e-p270:32:32-p271:32:32-p272:64:64-i64:64-i128:128-f80:128-n8:16:32:64-S128"
target triple = "x86_64-pc-linux-gnu"

%struct.lconv = type { ptr, ptr, ptr, ptr, ptr, ptr, ptr, ptr, ptr, ptr, i8, i8, i8, i8, i8, i8, i8, i8, i8, i8, i8, i8, i8, i8 }

@_ZZ7fmtitoalPwmE5ThSep = internal global i32 0, align 4

; Function Attrs: mustprogress nounwind uwtable
define void @_Z4itoalPwm(i64 noundef %0, ptr noundef %1, i64 noundef %2) #0 {
  %4 = alloca i64, align 8
  %5 = alloca ptr, align 8
  %6 = alloca i64, align 8
  %7 = alloca [50 x i32], align 16
  %8 = alloca i64, align 8
  %9 = alloca i32, align 4
  %10 = alloca i64, align 8
  store i64 %0, ptr %4, align 8
  store ptr %1, ptr %5, align 8
  store i64 %2, ptr %6, align 8
  store i64 0, ptr %8, align 8
  %11 = load i64, ptr %4, align 8
  %12 = icmp slt i64 %11, 0
  %13 = select i1 %12, i32 1, i32 0
  store i32 %13, ptr %9, align 4
  %14 = load i32, ptr %9, align 4
  %15 = icmp ne i32 %14, 0
  br i1 %15, label %16, label %19

16:                                               ; preds = %3
  %17 = load i64, ptr %4, align 8
  %18 = sub nsw i64 0, %17
  store i64 %18, ptr %4, align 8
  br label %19

19:                                               ; preds = %16, %3
  br label %20

20:                                               ; preds = %39, %19
  %21 = load i64, ptr %8, align 8
  %22 = add i64 %21, 1
  %23 = load i64, ptr %6, align 8
  %24 = load i32, ptr %9, align 4
  %25 = sext i32 %24 to i64
  %26 = sub i64 %23, %25
  %27 = icmp uge i64 %22, %26
  br i1 %27, label %28, label %29

28:                                               ; preds = %20
  br label %42

29:                                               ; preds = %20
  %30 = load i64, ptr %4, align 8
  %31 = srem i64 %30, 10
  %32 = trunc i64 %31 to i32
  %33 = add nsw i32 %32, 48
  %34 = load i64, ptr %8, align 8
  %35 = add i64 %34, 1
  store i64 %35, ptr %8, align 8
  %36 = getelementptr inbounds [50 x i32], ptr %7, i64 0, i64 %34
  store i32 %33, ptr %36, align 4
  %37 = load i64, ptr %4, align 8
  %38 = sdiv i64 %37, 10
  store i64 %38, ptr %4, align 8
  br label %39

39:                                               ; preds = %29
  %40 = load i64, ptr %4, align 8
  %41 = icmp ne i64 %40, 0
  br i1 %41, label %20, label %42, !llvm.loop !17

42:                                               ; preds = %39, %28
  %43 = load i32, ptr %9, align 4
  %44 = icmp ne i32 %43, 0
  br i1 %44, label %45, label %49

45:                                               ; preds = %42
  %46 = load i64, ptr %8, align 8
  %47 = add i64 %46, 1
  store i64 %47, ptr %8, align 8
  %48 = getelementptr inbounds [50 x i32], ptr %7, i64 0, i64 %46
  store i32 45, ptr %48, align 4
  br label %49

49:                                               ; preds = %45, %42
  store i64 0, ptr %10, align 8
  br label %50

50:                                               ; preds = %64, %49
  %51 = load i64, ptr %10, align 8
  %52 = load i64, ptr %8, align 8
  %53 = icmp ult i64 %51, %52
  br i1 %53, label %54, label %67

54:                                               ; preds = %50
  %55 = load i64, ptr %8, align 8
  %56 = load i64, ptr %10, align 8
  %57 = sub i64 %55, %56
  %58 = sub i64 %57, 1
  %59 = getelementptr inbounds [50 x i32], ptr %7, i64 0, i64 %58
  %60 = load i32, ptr %59, align 4
  %61 = load ptr, ptr %5, align 8
  %62 = load i64, ptr %10, align 8
  %63 = getelementptr inbounds i32, ptr %61, i64 %62
  store i32 %60, ptr %63, align 4
  br label %64

64:                                               ; preds = %54
  %65 = load i64, ptr %10, align 8
  %66 = add i64 %65, 1
  store i64 %66, ptr %10, align 8
  br label %50, !llvm.loop !18

67:                                               ; preds = %50
  %68 = load ptr, ptr %5, align 8
  %69 = load i64, ptr %8, align 8
  %70 = getelementptr inbounds i32, ptr %68, i64 %69
  store i32 0, ptr %70, align 4
  ret void
}

; Function Attrs: mustprogress nounwind uwtable
define void @_Z7fmtitoalPwm(i64 noundef %0, ptr noundef %1, i64 noundef %2) #0 {
  %4 = alloca i64, align 8
  %5 = alloca ptr, align 8
  %6 = alloca i64, align 8
  %7 = alloca [30 x i32], align 16
  %8 = alloca i32, align 4
  %9 = alloca i32, align 4
  %10 = alloca i32, align 4
  store i64 %0, ptr %4, align 8
  store ptr %1, ptr %5, align 8
  store i64 %2, ptr %6, align 8
  %11 = call ptr @localeconv() #6
  %12 = getelementptr inbounds %struct.lconv, ptr %11, i32 0, i32 1
  %13 = load ptr, ptr %12, align 8
  %14 = load i8, ptr %13, align 1
  %15 = sext i8 %14 to i32
  store i32 %15, ptr @_ZZ7fmtitoalPwmE5ThSep, align 4
  %16 = load i32, ptr @_ZZ7fmtitoalPwmE5ThSep, align 4
  %17 = icmp eq i32 %16, 0
  br i1 %17, label %18, label %19

18:                                               ; preds = %3
  store i32 32, ptr @_ZZ7fmtitoalPwmE5ThSep, align 4
  br label %19

19:                                               ; preds = %18, %3
  %20 = load i64, ptr %4, align 8
  %21 = getelementptr inbounds [30 x i32], ptr %7, i64 0, i64 0
  call void @_Z4itoalPwm(i64 noundef %20, ptr noundef %21, i64 noundef 30)
  store i32 0, ptr %8, align 4
  store i32 0, ptr %9, align 4
  %22 = getelementptr inbounds [30 x i32], ptr %7, i64 0, i64 0
  %23 = call i64 @wcslen(ptr noundef %22) #5
  %24 = urem i64 %23, 3
  %25 = trunc i64 %24 to i32
  store i32 %25, ptr %10, align 4
  br label %26

26:                                               ; preds = %57, %19
  %27 = load i32, ptr %8, align 4
  %28 = zext i32 %27 to i64
  %29 = getelementptr inbounds [30 x i32], ptr %7, i64 0, i64 %28
  %30 = load i32, ptr %29, align 4
  %31 = icmp ne i32 %30, 0
  br i1 %31, label %32, label %38

32:                                               ; preds = %26
  %33 = load i32, ptr %9, align 4
  %34 = add i32 %33, 1
  %35 = zext i32 %34 to i64
  %36 = load i64, ptr %6, align 8
  %37 = icmp ult i64 %35, %36
  br label %38

38:                                               ; preds = %32, %26
  %39 = phi i1 [ false, %26 ], [ %37, %32 ]
  br i1 %39, label %40, label %68

40:                                               ; preds = %38
  %41 = load i32, ptr %8, align 4
  %42 = icmp ne i32 %41, 0
  br i1 %42, label %43, label %57

43:                                               ; preds = %40
  %44 = load i32, ptr %8, align 4
  %45 = add i32 %44, 3
  %46 = load i32, ptr %10, align 4
  %47 = sub i32 %45, %46
  %48 = urem i32 %47, 3
  %49 = icmp eq i32 %48, 0
  br i1 %49, label %50, label %57

50:                                               ; preds = %43
  %51 = load i32, ptr @_ZZ7fmtitoalPwmE5ThSep, align 4
  %52 = load ptr, ptr %5, align 8
  %53 = load i32, ptr %9, align 4
  %54 = add i32 %53, 1
  store i32 %54, ptr %9, align 4
  %55 = zext i32 %53 to i64
  %56 = getelementptr inbounds i32, ptr %52, i64 %55
  store i32 %51, ptr %56, align 4
  br label %57

57:                                               ; preds = %50, %43, %40
  %58 = load i32, ptr %8, align 4
  %59 = add i32 %58, 1
  store i32 %59, ptr %8, align 4
  %60 = zext i32 %58 to i64
  %61 = getelementptr inbounds [30 x i32], ptr %7, i64 0, i64 %60
  %62 = load i32, ptr %61, align 4
  %63 = load ptr, ptr %5, align 8
  %64 = load i32, ptr %9, align 4
  %65 = add i32 %64, 1
  store i32 %65, ptr %9, align 4
  %66 = zext i32 %64 to i64
  %67 = getelementptr inbounds i32, ptr %63, i64 %66
  store i32 %62, ptr %67, align 4
  br label %26, !llvm.loop !19

68:                                               ; preds = %38
  %69 = load ptr, ptr %5, align 8
  %70 = load i32, ptr %9, align 4
  %71 = zext i32 %70 to i64
  %72 = getelementptr inbounds i32, ptr %69, i64 %71
  store i32 0, ptr %72, align 4
  ret void
}