; Function Attrs: mustprogress nounwind uwtable
define void @_Z7fmtitoalPwm(i64 noundef %0, ptr nocapture noundef writeonly %1, i64 noundef %2) local_unnamed_addr #12 {
  %4 = alloca [50 x i32], align 16
  %5 = alloca [30 x i32], align 16
  %6 = tail call ptr @localeconv() #18
  %7 = getelementptr inbounds i8, ptr %6, i64 8
  %8 = load ptr, ptr %7, align 8
  %9 = load i8, ptr %8, align 1
  %10 = icmp eq i8 %9, 0
  %narrow = select i1 %10, i8 32, i8 %9
  %spec.store.select = sext i8 %narrow to i32
  call void @llvm.lifetime.start.p0(i64 200, ptr nonnull %4)
  %11 = icmp slt i64 %0, 0
  %.lobit.neg.i = ashr i64 %0, 63
  %spec.select.i = tail call i64 @llvm.abs.i64(i64 %0, i1 true)
  %12 = add nsw i64 %.lobit.neg.i, 29
  br label %13

13:                                               ; preds = %14, %3
  %.021.i = phi i64 [ 0, %3 ], [ %15, %14 ]
  %.1.i = phi i64 [ %spec.select.i, %3 ], [ %20, %14 ]
  %exitcond.not.i = icmp eq i64 %.021.i, %12
  br i1 %exitcond.not.i, label %21, label %14

14:                                               ; preds = %13
  %15 = add nuw nsw i64 %.021.i, 1
  %16 = urem i64 %.1.i, 10
  %17 = trunc nuw nsw i64 %16 to i32
  %18 = or disjoint i32 %17, 48
  %19 = getelementptr inbounds [50 x i32], ptr %4, i64 0, i64 %.021.i
  store i32 %18, ptr %19, align 4
  %20 = udiv i64 %.1.i, 10
  %.not27.i = icmp ult i64 %.1.i, 10
  br i1 %.not27.i, label %21, label %13, !llvm.loop !17

21:                                               ; preds = %14, %13
  %.122.i = phi i64 [ %12, %13 ], [ %15, %14 ]
  br i1 %11, label %22, label %25

22:                                               ; preds = %21
  %23 = add i64 %.122.i, 1
  %24 = getelementptr inbounds [50 x i32], ptr %4, i64 0, i64 %.122.i
  store i32 45, ptr %24, align 4
  br label %25

25:                                               ; preds = %22, %21
  %.2.i = phi i64 [ %23, %22 ], [ %.122.i, %21 ]
  %.not29.i = icmp eq i64 %.2.i, 0
  br i1 %.not29.i, label %_Z4itoalPwm.exit, label %.lr.ph.i

.lr.ph.i:                                         ; preds = %25, %.lr.ph.i
  %.028.i = phi i64 [ %31, %.lr.ph.i ], [ 0, %25 ]
  %26 = xor i64 %.028.i, -1
  %27 = add nsw i64 %.2.i, %26
  %28 = getelementptr inbounds [50 x i32], ptr %4, i64 0, i64 %27
  %29 = load i32, ptr %28, align 4
  %30 = getelementptr inbounds i32, ptr %5, i64 %.028.i
  store i32 %29, ptr %30, align 4
  %31 = add nuw nsw i64 %.028.i, 1
  %exitcond30.not.i = icmp eq i64 %31, %.2.i
  br i1 %exitcond30.not.i, label %_Z4itoalPwm.exit, label %.lr.ph.i, !llvm.loop !18

_Z4itoalPwm.exit:                                 ; preds = %.lr.ph.i, %25
  %32 = getelementptr inbounds i32, ptr %5, i64 %.2.i
  store i32 0, ptr %32, align 4
  call void @llvm.lifetime.end.p0(i64 200, ptr nonnull %4)
  %33 = load i32, ptr %5, align 16
  %34 = icmp ne i32 %33, 0
  %35 = icmp ugt i64 %2, 1
  %36 = and i1 %34, %35
  br i1 %36, label %.lr.ph, label %._crit_edge

.lr.ph:                                           ; preds = %_Z4itoalPwm.exit
  %37 = call i64 @wcslen(ptr noundef nonnull %5) #17
  %38 = urem i64 %37, 3
  %39 = trunc nuw nsw i64 %38 to i32
  %40 = xor i32 %39, 3
  br label %41

41:                                               ; preds = %.lr.ph, %51
  %42 = phi i32 [ 1, %.lr.ph ], [ %60, %51 ]
  %43 = phi i32 [ %33, %.lr.ph ], [ %58, %51 ]
  %.015 = phi i32 [ 0, %.lr.ph ], [ %52, %51 ]
  %.01314 = phi i32 [ 0, %.lr.ph ], [ %53, %51 ]
  %.not = icmp eq i32 %.015, 0
  br i1 %.not, label %51, label %44

44:                                               ; preds = %41
  %45 = add i32 %40, %.015
  %46 = urem i32 %45, 3
  %47 = icmp eq i32 %46, 0
  br i1 %47, label %48, label %51

48:                                               ; preds = %44
  %49 = zext i32 %.01314 to i64
  %50 = getelementptr inbounds i32, ptr %1, i64 %49
  store i32 %spec.store.select, ptr %50, align 4
  br label %51

51:                                               ; preds = %48, %44, %41
  %.1 = phi i32 [ %42, %48 ], [ %.01314, %44 ], [ %.01314, %41 ]
  %52 = add i32 %.015, 1
  %53 = add i32 %.1, 1
  %54 = zext i32 %.1 to i64
  %55 = getelementptr inbounds i32, ptr %1, i64 %54
  store i32 %43, ptr %55, align 4
  %56 = zext i32 %52 to i64
  %57 = getelementptr inbounds [30 x i32], ptr %5, i64 0, i64 %56
  %58 = load i32, ptr %57, align 4
  %59 = icmp ne i32 %58, 0
  %60 = add i32 %.1, 2
  %61 = zext i32 %60 to i64
  %62 = icmp ult i64 %61, %2
  %63 = and i1 %59, %62
  br i1 %63, label %41, label %._crit_edge.loopexit, !llvm.loop !19

._crit_edge.loopexit:                             ; preds = %51
  %64 = zext i32 %53 to i64
  br label %._crit_edge

._crit_edge:                                      ; preds = %._crit_edge.loopexit, %_Z4itoalPwm.exit
  %.013.lcssa = phi i64 [ 0, %_Z4itoalPwm.exit ], [ %64, %._crit_edge.loopexit ]
  %65 = getelementptr inbounds i32, ptr %1, i64 %.013.lcssa
  store i32 0, ptr %65, align 4
  ret void
}